target datalayout = "e-m:e-p270:32:32-p271:32:32-p272:64:64-i64:64-i128:128-f80:128-n8:16:32:64-S128"
target triple = "x86_64-pc-linux-gnu"

%struct.buf_t = type { i32, ptr, i32, i32, i8, i8 }

@.str.4 = private unnamed_addr constant [29 x i8] c"switch_g_unpack_stepinfo: %m\00", align 1

; Function Attrs: nounwind uwtable
define internal i32 @_unpackstr_and_switch(ptr noundef %0, ptr noundef %1, ptr noundef %2, i16 noundef zeroext %3) #0 {
  %5 = alloca i32, align 4
  %6 = alloca ptr, align 8
  %7 = alloca ptr, align 8
  %8 = alloca ptr, align 8
  %9 = alloca i16, align 2
  %10 = alloca i32, align 4
  %11 = alloca i32, align 4
  %12 = alloca i32, align 4
  %13 = alloca i32, align 4
  %14 = alloca ptr, align 8
  %15 = alloca i32, align 4
  store ptr %0, ptr %6, align 8
  store ptr %1, ptr %7, align 8
  store ptr %2, ptr %8, align 8
  store i16 %3, ptr %9, align 2
  call void @llvm.lifetime.start.p0(i64 4, ptr %10) #6
  store i32 0, ptr %10, align 4
  call void @llvm.lifetime.start.p0(i64 4, ptr %11) #6
  store i32 0, ptr %11, align 4
  call void @llvm.lifetime.start.p0(i64 4, ptr %12) #6
  store i32 0, ptr %12, align 4
  %16 = load ptr, ptr %8, align 8
  %17 = getelementptr inbounds nuw %struct.buf_t, ptr %16, i32 0, i32 3
  %18 = load i32, ptr %17, align 4
  store i32 %18, ptr %10, align 4
  br label %19

19:                                               ; preds = %4
  %20 = load ptr, ptr %6, align 8
  %21 = load ptr, ptr %8, align 8
  %22 = call i32 @unpackstr_xmalloc_chooser(ptr noundef %20, ptr noundef %11, ptr noundef %21)
  %23 = icmp ne i32 %22, 0
  br i1 %23, label %24, label %25

24:                                               ; preds = %19
  br label %71

25:                                               ; preds = %19
  br label %26

26:                                               ; preds = %25
  br label %27

27:                                               ; preds = %26
  %28 = load ptr, ptr %6, align 8
  %29 = load ptr, ptr %28, align 8
  %30 = icmp ne ptr %29, null
  br i1 %30, label %32, label %31

31:                                               ; preds = %27
  store i32 0, ptr %5, align 4
  store i32 1, ptr %13, align 4
  br label %72

32:                                               ; preds = %27
  %33 = call zeroext i1 @running_in_slurmstepd()
  br i1 %33, label %35, label %34

34:                                               ; preds = %32
  store i32 0, ptr %5, align 4
  store i32 1, ptr %13, align 4
  br label %72

35:                                               ; preds = %32
  %36 = load ptr, ptr %6, align 8
  %37 = load ptr, ptr %36, align 8
  %38 = call i64 @strlen(ptr noundef %37) #7
  %39 = add i64 %38, 1
  %40 = trunc i64 %39 to i32
  store i32 %40, ptr %12, align 4
  %41 = load i32, ptr %11, align 4
  %42 = load i32, ptr %12, align 4
  %43 = icmp ugt i32 %41, %42
  br i1 %43, label %44, label %70

44:                                               ; preds = %35
  call void @llvm.lifetime.start.p0(i64 8, ptr %14) #6
  store ptr null, ptr %14, align 8
  call void @llvm.lifetime.start.p0(i64 4, ptr %15) #6
  %45 = load ptr, ptr %8, align 8
  %46 = getelementptr inbounds nuw %struct.buf_t, ptr %45, i32 0, i32 3
  %47 = load i32, ptr %46, align 4
  store i32 %47, ptr %15, align 4
  %48 = load i32, ptr %10, align 4
  %49 = load i32, ptr %12, align 4
  %50 = add i32 %48, %49
  %51 = add i32 %50, 4
  %52 = load ptr, ptr %8, align 8
  %53 = getelementptr inbounds nuw %struct.buf_t, ptr %52, i32 0, i32 3
  store i32 %51, ptr %53, align 4
  %54 = load ptr, ptr %8, align 8
  %55 = load i16, ptr %9, align 2
  %56 = call i32 @switch_g_unpack_stepinfo(ptr noundef %14, ptr noundef %54, i16 noundef zeroext %55)
  %57 = icmp ne i32 %56, 0
  br i1 %57, label %58, label %61

58:                                               ; preds = %44
  %59 = call i32 (ptr, ...) @error(ptr noundef @.str.4)
  %60 = load ptr, ptr %14, align 8
  call void @switch_g_free_stepinfo(ptr noundef %60)
  store i32 4, ptr %13, align 4
  br label %67

61:                                               ; preds = %44
  %62 = load ptr, ptr %14, align 8
  %63 = load ptr, ptr %7, align 8
  store ptr %62, ptr %63, align 8
  %64 = load i32, ptr %15, align 4
  %65 = load ptr, ptr %8, align 8
  %66 = getelementptr inbounds nuw %struct.buf_t, ptr %65, i32 0, i32 3
  store i32 %64, ptr %66, align 4
  store i32 0, ptr %13, align 4
  br label %67

67:                                               ; preds = %58, %61
  call void @llvm.lifetime.end.p0(i64 4, ptr %15) #6
  call void @llvm.lifetime.end.p0(i64 8, ptr %14) #6
  %68 = load i32, ptr %13, align 4
  switch i32 %68, label %72 [
    i32 0, label %69
    i32 4, label %71
  ]

69:                                               ; preds = %67
  br label %70

70:                                               ; preds = %69, %35
  store i32 0, ptr %5, align 4
  store i32 1, ptr %13, align 4
  br label %72

71:                                               ; preds = %67, %24
  store i32 -1, ptr %5, align 4
  store i32 1, ptr %13, align 4
  br label %72

72:                                               ; preds = %71, %70, %67, %34, %31
  call void @llvm.lifetime.end.p0(i64 4, ptr %12) #6
  call void @llvm.lifetime.end.p0(i64 4, ptr %11) #6
  call void @llvm.lifetime.end.p0(i64 4, ptr %10) #6
  %73 = load i32, ptr %5, align 4
  ret i32 %73
}