; Function Attrs: nounwind uwtable
define internal fastcc range(i32 -1, 1) i32 @_unpackstr_and_switch(ptr noundef %0, ptr noundef writeonly captures(none) %1, ptr noundef %2, i16 noundef zeroext %3) unnamed_addr #0 {
  %5 = alloca i32, align 4
  %6 = alloca ptr, align 8
  call void @llvm.lifetime.start.p0(i64 4, ptr nonnull %5) #6
  store i32 0, ptr %5, align 4
  %7 = getelementptr inbounds nuw i8, ptr %2, i64 20
  %8 = load i32, ptr %7, align 4
  %9 = call i32 @unpackstr_xmalloc_chooser(ptr noundef %0, ptr noundef nonnull %5, ptr noundef %2) #6
  %.not = icmp eq i32 %9, 0
  br i1 %.not, label %10, label %30

10:                                               ; preds = %4
  %11 = load ptr, ptr %0, align 8
  %.not18 = icmp eq ptr %11, null
  br i1 %.not18, label %30, label %12

12:                                               ; preds = %10
  %13 = call zeroext i1 @running_in_slurmstepd() #6
  br i1 %13, label %14, label %30

14:                                               ; preds = %12
  %15 = load ptr, ptr %0, align 8
  %16 = call i64 @strlen(ptr noundef nonnull dereferenceable(1) %15) #7
  %17 = trunc i64 %16 to i32
  %18 = add i32 %17, 1
  %19 = load i32, ptr %5, align 4
  %20 = icmp ugt i32 %19, %18
  br i1 %20, label %21, label %30

21:                                               ; preds = %14
  call void @llvm.lifetime.start.p0(i64 8, ptr nonnull %6) #6
  store ptr null, ptr %6, align 8
  %22 = load i32, ptr %7, align 4
  %23 = add i32 %8, 4
  %24 = add i32 %23, %18
  store i32 %24, ptr %7, align 4
  %25 = call i32 @switch_g_unpack_stepinfo(ptr noundef nonnull %6, ptr noundef nonnull %2, i16 noundef zeroext %3) #6
  %.not19 = icmp eq i32 %25, 0
  br i1 %.not19, label %.thread, label %27

.thread:                                          ; preds = %21
  %26 = load ptr, ptr %6, align 8
  store ptr %26, ptr %1, align 8
  store i32 %22, ptr %7, align 4
  br label %.sink.split

27:                                               ; preds = %21
  %28 = call i32 (ptr, ...) @error(ptr noundef nonnull @.str.4) #6
  %29 = load ptr, ptr %6, align 8
  call void @switch_g_free_stepinfo(ptr noundef %29) #6
  br label %.sink.split

.sink.split:                                      ; preds = %.thread, %27
  %.0.ph = phi i32 [ -1, %27 ], [ 0, %.thread ]
  call void @llvm.lifetime.end.p0(i64 8, ptr nonnull %6) #6
  br label %30

30:                                               ; preds = %.sink.split, %4, %14, %12, %10
  %.0 = phi i32 [ 0, %10 ], [ 0, %12 ], [ 0, %14 ], [ -1, %4 ], [ %.0.ph, %.sink.split ]
  call void @llvm.lifetime.end.p0(i64 4, ptr nonnull %5) #6
  ret i32 %.0
}